target datalayout = "e-m:e-p270:32:32-p271:32:32-p272:64:64-i64:64-f80:128-n8:16:32:64-S128"
target triple = "x86_64-pc-linux-gnu"

; Function Attrs: noinline nounwind uwtable
define dso_local void @f1(i8* %0, i32 %1) #0 {
  %3 = alloca i8*, align 8
  %4 = alloca i32, align 4
  %5 = alloca [501 x i8], align 16
  %6 = alloca i32, align 4
  store i8* %0, i8** %3, align 8
  store i32 %1, i32* %4, align 4
  store i32 0, i32* %6, align 4
  br label %7

7:                                                ; preds = %23, %2
  %8 = load i32, i32* %6, align 4
  %9 = load i32, i32* %4, align 4
  %10 = icmp slt i32 %8, %9
  br i1 %10, label %11, label %26

11:                                               ; preds = %7
  %12 = load i8*, i8** %3, align 8
  %13 = load i32, i32* %6, align 4
  %14 = sext i32 %13 to i64
  %15 = getelementptr inbounds i8, i8* %12, i64 %14
  %16 = load i8, i8* %15, align 1
  %17 = load i32, i32* %4, align 4
  %18 = load i32, i32* %6, align 4
  %19 = sub nsw i32 %17, %18
  %20 = sub nsw i32 %19, 1
  %21 = sext i32 %20 to i64
  %22 = getelementptr inbounds [501 x i8], [501 x i8]* %5, i64 0, i64 %21
  store i8 %16, i8* %22, align 1
  br label %23

23:                                               ; preds = %11
  %24 = load i32, i32* %6, align 4
  %25 = add nsw i32 %24, 1
  store i32 %25, i32* %6, align 4
  br label %7

26:                                               ; preds = %7
  %27 = load i32, i32* %4, align 4
  %28 = sext i32 %27 to i64
  %29 = getelementptr inbounds [501 x i8], [501 x i8]* %5, i64 0, i64 %28
  store i8 0, i8* %29, align 1
  %30 = load i8*, i8** %3, align 8
  %31 = getelementptr inbounds [501 x i8], [501 x i8]* %5, i64 0, i64 0
  %32 = call i32 @strcmp(i8* %30, i8* %31) #3
  %33 = icmp eq i32 %32, 0
  br i1 %33, label %34, label %37

34:                                               ; preds = %26
  %35 = load i8*, i8** %3, align 8
  %36 = call i32 @puts(i8* %35)
  br label %37

37:                                               ; preds = %34, %26
  ret void
}

; Function Attrs: noinline nounwind uwtable
define dso_local void @f2(i8* %0, i32 %1, i32 %2) #0 {
  %4 = alloca i8*, align 8
  %5 = alloca i32, align 4
  %6 = alloca i32, align 4
  %7 = alloca i32, align 4
  %8 = alloca i32, align 4
  %9 = alloca i32, align 4
  %10 = alloca [501 x i8], align 16
  store i8* %0, i8** %4, align 8
  store i32 %1, i32* %5, align 4
  store i32 %2, i32* %6, align 4
  store i32 0, i32* %7, align 4
  br label %11

11:                                               ; preds = %46, %3
  %12 = load i32, i32* %7, align 4
  %13 = load i32, i32* %6, align 4
  %14 = load i32, i32* %5, align 4
  %15 = sub nsw i32 %13, %14
  %16 = add nsw i32 %15, 2
  %17 = icmp slt i32 %12, %16
  br i1 %17, label %18, label %49

18:                                               ; preds = %11
  store i32 0, i32* %9, align 4
  %19 = load i32, i32* %7, align 4
  store i32 %19, i32* %8, align 4
  br label %20

20:                                               ; preds = %37, %18
  %21 = load i32, i32* %8, align 4
  %22 = load i32, i32* %7, align 4
  %23 = load i32, i32* %5, align 4
  %24 = add nsw i32 %22, %23
  %25 = icmp slt i32 %21, %24
  br i1 %25, label %26, label %40

26:                                               ; preds = %20
  %27 = load i8*, i8** %4, align 8
  %28 = load i32, i32* %8, align 4
  %29 = sext i32 %28 to i64
  %30 = getelementptr inbounds i8, i8* %27, i64 %29
  %31 = load i8, i8* %30, align 1
  %32 = load i32, i32* %9, align 4
  %33 = sext i32 %32 to i64
  %34 = getelementptr inbounds [501 x i8], [501 x i8]* %10, i64 0, i64 %33
  store i8 %31, i8* %34, align 1
  %35 = load i32, i32* %9, align 4
  %36 = add nsw i32 %35, 1
  store i32 %36, i32* %9, align 4
  br label %37

37:                                               ; preds = %26
  %38 = load i32, i32* %8, align 4
  %39 = add nsw i32 %38, 1
  store i32 %39, i32* %8, align 4
  br label %20

40:                                               ; preds = %20
  %41 = load i32, i32* %9, align 4
  %42 = sext i32 %41 to i64
  %43 = getelementptr inbounds [501 x i8], [501 x i8]* %10, i64 0, i64 %42
  store i8 0, i8* %43, align 1
  %44 = getelementptr inbounds [501 x i8], [501 x i8]* %10, i64 0, i64 0
  %45 = load i32, i32* %5, align 4
  call void @f1(i8* %44, i32 %45)
  br label %46

46:                                               ; preds = %40
  %47 = load i32, i32* %7, align 4
  %48 = add nsw i32 %47, 1
  store i32 %48, i32* %7, align 4
  br label %11

49:                                               ; preds = %11
  ret void
}

; Function Attrs: noinline nounwind uwtable
define dso_local void @f3(i8* %0, i32 %1) #0 {
  %3 = alloca i8*, align 8
  %4 = alloca i32, align 4
  %5 = alloca i32, align 4
  store i8* %0, i8** %3, align 8
  store i32 %1, i32* %4, align 4
  store i32 2, i32* %5, align 4
  br label %6

6:                                                ; preds = %15, %2
  %7 = load i32, i32* %5, align 4
  %8 = load i32, i32* %4, align 4
  %9 = add nsw i32 %8, 1
  %10 = icmp slt i32 %7, %9
  br i1 %10, label %11, label %18

11:                                               ; preds = %6
  %12 = load i8*, i8** %3, align 8
  %13 = load i32, i32* %5, align 4
  %14 = load i32, i32* %4, align 4
  call void @f2(i8* %12, i32 %13, i32 %14)
  br label %15

15:                                               ; preds = %11
  %16 = load i32, i32* %5, align 4
  %17 = add nsw i32 %16, 1
  store i32 %17, i32* %5, align 4
  br label %6

18:                                               ; preds = %6
  ret void
}

; Function Attrs: noinline nounwind uwtable
define dso_local void @main() #0 {
  %1 = alloca [501 x i8], align 16
  %2 = alloca i32, align 4
  %3 = getelementptr inbounds [501 x i8], [501 x i8]* %1, i64 0, i64 0
  %4 = call i32 (i8*, ...) bitcast (i32 (...)* @gets to i32 (i8*, ...)*)(i8* %3)
  %5 = getelementptr inbounds [501 x i8], [501 x i8]* %1, i64 0, i64 0
  %6 = call i64 @strlen(i8* %5) #3
  %7 = trunc i64 %6 to i32
  store i32 %7, i32* %2, align 4
  %8 = getelementptr inbounds [501 x i8], [501 x i8]* %1, i64 0, i64 0
  %9 = load i32, i32* %2, align 4
  call void @f3(i8* %8, i32 %9)
  ret void
}